; Function Attrs: nounwind uwtable
define range(i32 0, 2) i32 @ossl_quic_obj_can_support_blocking(ptr noundef readonly captures(none) %0) local_unnamed_addr #0 {
  %2 = getelementptr i8, ptr %0, i64 88
  %.val = load ptr, ptr %2, align 8, !tbaa !54
  %3 = tail call ptr @ossl_quic_engine_get0_reactor(ptr noundef %.val) #5
  %4 = getelementptr inbounds nuw i8, ptr %0, i64 104
  %5 = load i64, ptr %4, align 8, !tbaa !48
  %6 = and i64 %5, 24
  %7 = icmp eq i64 %6, 0
  br i1 %7, label %14, label %8

8:                                                ; preds = %1
  %9 = tail call i32 @ossl_quic_reactor_can_poll_r(ptr noundef %3) #5
  %.not = icmp eq i32 %9, 0
  br i1 %.not, label %10, label %14

10:                                               ; preds = %8
  %11 = tail call i32 @ossl_quic_reactor_can_poll_w(ptr noundef %3) #5
  %12 = icmp ne i32 %11, 0
  %13 = zext i1 %12 to i32
  br label %14

14:                                               ; preds = %8, %10, %1
  %.0 = phi i32 [ 0, %1 ], [ 1, %8 ], [ %13, %10 ]
  ret i32 %.0
}